target datalayout = "e-m:e-p270:32:32-p271:32:32-p272:64:64-i64:64-i128:128-f80:128-n8:16:32:64-S128"
target triple = "x86_64-pc-linux-gnu"

%"class.icu_77::EraRules" = type { %"class.icu_77::LocalMemory", i32, i32 }
%"class.icu_77::LocalMemory" = type { %"class.icu_77::LocalPointerBase" }
%"class.icu_77::LocalPointerBase" = type { ptr }

@_ZL11gCurrentEra = internal global i32 0, align 4
@_ZL17gJapaneseEraRules = internal global ptr null, align 8

; Function Attrs: inlinehint mustprogress nounwind uwtable
define linkonce_odr noundef i32 @_ZNK6icu_778EraRules15getNumberOfErasEv(ptr noundef nonnull align 8 dereferenceable(16) %0) #5 comdat align 2 {
  %2 = alloca ptr, align 8
  store ptr %0, ptr %2, align 8, !tbaa !20
  %3 = load ptr, ptr %2, align 8
  %4 = getelementptr inbounds nuw %"class.icu_77::EraRules", ptr %3, i32 0, i32 1
  %5 = load i32, ptr %4, align 8, !tbaa !28
  ret i32 %5
}

; Function Attrs: mustprogress uwtable
define noundef i32 @_ZNK6icu_7716JapaneseCalendar14handleGetLimitE19UCalendarDateFieldsNS_8Calendar10ELimitTypeE(ptr noundef nonnull align 8 dereferenceable(222) %0, i32 noundef %1, i32 noundef %2) unnamed_addr #1 align 2 {
  %4 = alloca i32, align 4
  %5 = alloca ptr, align 8
  %6 = alloca i32, align 4
  %7 = alloca i32, align 4
  %8 = alloca i32, align 4
  %9 = alloca i32, align 4
  store ptr %0, ptr %5, align 8, !tbaa !3
  store i32 %1, ptr %6, align 4, !tbaa !24
  store i32 %2, ptr %7, align 4, !tbaa !26
  %10 = load ptr, ptr %5, align 8
  %11 = load i32, ptr %6, align 4, !tbaa !24
  switch i32 %11, label %35 [
    i32 0, label %12
    i32 1, label %23
  ]

12:                                               ; preds = %3
  %13 = load i32, ptr %7, align 4, !tbaa !26
  %14 = icmp eq i32 %13, 0
  br i1 %14, label %18, label %15

15:                                               ; preds = %12
  %16 = load i32, ptr %7, align 4, !tbaa !26
  %17 = icmp eq i32 %16, 1
  br i1 %17, label %18, label %19

18:                                               ; preds = %15, %12
  store i32 0, ptr %4, align 4
  br label %39

19:                                               ; preds = %15
  %20 = load ptr, ptr @_ZL17gJapaneseEraRules, align 8, !tbaa !20
  %21 = call noundef i32 @_ZNK6icu_778EraRules15getNumberOfErasEv(ptr noundef nonnull align 8 dereferenceable(16) %20)
  %22 = sub nsw i32 %21, 1
  store i32 %22, ptr %4, align 4
  br label %39

23:                                               ; preds = %3
  %24 = load i32, ptr %7, align 4, !tbaa !26
  switch i32 %24, label %34 [
    i32 0, label %25
    i32 1, label %25
    i32 2, label %26
    i32 4, label %27
    i32 3, label %27
  ]

25:                                               ; preds = %23, %23
  store i32 1, ptr %4, align 4
  br label %39

26:                                               ; preds = %23
  store i32 1, ptr %4, align 4
  br label %39

27:                                               ; preds = %23, %23
  call void @llvm.lifetime.start.p0(i64 4, ptr %8) #10
  store i32 0, ptr %8, align 4, !tbaa !18
  call void @llvm.lifetime.start.p0(i64 4, ptr %9) #10
  %28 = load ptr, ptr @_ZL17gJapaneseEraRules, align 8, !tbaa !20
  %29 = load i32, ptr @_ZL11gCurrentEra, align 4, !tbaa !11
  %30 = call noundef i32 @_ZNK6icu_778EraRules12getStartYearEiR10UErrorCode(ptr noundef nonnull align 8 dereferenceable(16) %28, i32 noundef %29, ptr noundef nonnull align 4 dereferenceable(4) %8)
  store i32 %30, ptr %9, align 4, !tbaa !11
  %31 = call noundef i32 @_ZNK6icu_7717GregorianCalendar14handleGetLimitE19UCalendarDateFieldsNS_8Calendar10ELimitTypeE(ptr noundef nonnull align 8 dereferenceable(222) %10, i32 noundef 1, i32 noundef 3)
  %32 = load i32, ptr %9, align 4, !tbaa !11
  %33 = sub nsw i32 %31, %32
  store i32 %33, ptr %4, align 4
  call void @llvm.lifetime.end.p0(i64 4, ptr %9) #10
  call void @llvm.lifetime.end.p0(i64 4, ptr %8) #10
  br label %39

34:                                               ; preds = %23
  store i32 1, ptr %4, align 4
  br label %39

35:                                               ; preds = %3
  %36 = load i32, ptr %6, align 4, !tbaa !24
  %37 = load i32, ptr %7, align 4, !tbaa !26
  %38 = call noundef i32 @_ZNK6icu_7717GregorianCalendar14handleGetLimitE19UCalendarDateFieldsNS_8Calendar10ELimitTypeE(ptr noundef nonnull align 8 dereferenceable(222) %10, i32 noundef %36, i32 noundef %37)
  store i32 %38, ptr %4, align 4
  br label %39

39:                                               ; preds = %35, %34, %27, %26, %25, %19, %18
  %40 = load i32, ptr %4, align 4
  ret i32 %40
}