; Function Attrs: mustprogress uwtable
define noundef i32 @_ZNK6icu_7716JapaneseCalendar14handleGetLimitE19UCalendarDateFieldsNS_8Calendar10ELimitTypeE(ptr noundef nonnull align 8 dereferenceable(222) %0, i32 noundef %1, i32 noundef %2) unnamed_addr #1 align 2 {
  %4 = alloca i32, align 4
  switch i32 %1, label %18 [
    i32 0, label %5
    i32 1, label %11
  ]

5:                                                ; preds = %3
  %or.cond = icmp ult i32 %2, 2
  br i1 %or.cond, label %20, label %6

6:                                                ; preds = %5
  %7 = load ptr, ptr @_ZL17gJapaneseEraRules, align 8, !tbaa !11
  %8 = getelementptr inbounds nuw i8, ptr %7, i64 8
  %9 = load i32, ptr %8, align 8, !tbaa !24
  %10 = add nsw i32 %9, -1
  br label %20

11:                                               ; preds = %3
  %.off = add i32 %2, -3
  %switch = icmp ult i32 %.off, 2
  br i1 %switch, label %12, label %20

12:                                               ; preds = %11
  call void @llvm.lifetime.start.p0(i64 4, ptr nonnull %4) #10
  store i32 0, ptr %4, align 4, !tbaa !9
  %13 = load ptr, ptr @_ZL17gJapaneseEraRules, align 8, !tbaa !11
  %14 = load i32, ptr @_ZL11gCurrentEra, align 4, !tbaa !3
  %15 = call noundef i32 @_ZNK6icu_778EraRules12getStartYearEiR10UErrorCode(ptr noundef nonnull align 8 dereferenceable(16) %13, i32 noundef %14, ptr noundef nonnull align 4 dereferenceable(4) %4)
  %16 = call noundef i32 @_ZNK6icu_7717GregorianCalendar14handleGetLimitE19UCalendarDateFieldsNS_8Calendar10ELimitTypeE(ptr noundef nonnull align 8 dereferenceable(222) %0, i32 noundef 1, i32 noundef 3)
  %17 = sub nsw i32 %16, %15
  call void @llvm.lifetime.end.p0(i64 4, ptr nonnull %4) #10
  br label %20

18:                                               ; preds = %3
  %19 = tail call noundef i32 @_ZNK6icu_7717GregorianCalendar14handleGetLimitE19UCalendarDateFieldsNS_8Calendar10ELimitTypeE(ptr noundef nonnull align 8 dereferenceable(222) %0, i32 noundef %1, i32 noundef %2)
  br label %20

20:                                               ; preds = %11, %5, %18, %12, %6
  %.0 = phi i32 [ %19, %18 ], [ %17, %12 ], [ %10, %6 ], [ 0, %5 ], [ 1, %11 ]
  ret i32 %.0
}